target datalayout = "e-m:e-p270:32:32-p271:32:32-p272:64:64-i64:64-i128:128-f80:128-n8:16:32:64-S128"
target triple = "x86_64-pc-linux-gnu"

; Function Attrs: nounwind uwtable
define i32 @Abc_NodeEvalMvCostInternal(i32 noundef %0, ptr noundef %1, ptr noundef %2) #0 {
  %4 = alloca i32, align 4
  %5 = alloca ptr, align 8
  %6 = alloca ptr, align 8
  %7 = alloca i32, align 4
  store i32 %0, ptr %4, align 4, !tbaa !27
  store ptr %1, ptr %5, align 8, !tbaa !150
  store ptr %2, ptr %6, align 8, !tbaa !58
  call void @llvm.lifetime.start.p0(i64 4, ptr %7) #9
  store i32 0, ptr %7, align 4, !tbaa !27
  br label %8

8:                                                ; preds = %12, %3
  %9 = load ptr, ptr %6, align 8, !tbaa !58
  %10 = load i8, ptr %9, align 1, !tbaa !57
  %11 = icmp ne i8 %10, 0
  br i1 %11, label %12, label %21

12:                                               ; preds = %8
  %13 = load ptr, ptr %6, align 8, !tbaa !58
  %14 = getelementptr inbounds nuw i8, ptr %13, i32 1
  store ptr %14, ptr %6, align 8, !tbaa !58
  %15 = load i8, ptr %13, align 1, !tbaa !57
  %16 = sext i8 %15 to i32
  %17 = icmp eq i32 %16, 10
  %18 = zext i1 %17 to i32
  %19 = load i32, ptr %7, align 4, !tbaa !27
  %20 = add nsw i32 %19, %18
  store i32 %20, ptr %7, align 4, !tbaa !27
  br label %8, !llvm.loop !151

21:                                               ; preds = %8
  %22 = load i32, ptr %7, align 4, !tbaa !27
  call void @llvm.lifetime.end.p0(i64 4, ptr %7) #9
  ret i32 %22
}

; Function Attrs: nounwind uwtable
define i32 @Abc_NodeEvalMvCost(i32 noundef %0, ptr noundef %1, ptr noundef %2) #0 {
  %4 = alloca i32, align 4
  %5 = alloca ptr, align 8
  %6 = alloca ptr, align 8
  %7 = alloca ptr, align 8
  %8 = alloca ptr, align 8
  %9 = alloca i32, align 4
  %10 = alloca i32, align 4
  store i32 %0, ptr %4, align 4, !tbaa !27
  store ptr %1, ptr %5, align 8, !tbaa !142
  store ptr %2, ptr %6, align 8, !tbaa !142
  call void @llvm.lifetime.start.p0(i64 8, ptr %7) #9
  call void @llvm.lifetime.start.p0(i64 8, ptr %8) #9
  call void @llvm.lifetime.start.p0(i64 4, ptr %9) #9
  call void @llvm.lifetime.start.p0(i64 4, ptr %10) #9
  %11 = load i32, ptr %4, align 4, !tbaa !27
  %12 = add nsw i32 %11, 1
  %13 = sext i32 %12 to i64
  %14 = mul i64 4, %13
  %15 = call noalias ptr @malloc(i64 noundef %14) #10
  store ptr %15, ptr %8, align 8, !tbaa !150
  store i32 0, ptr %9, align 4, !tbaa !27
  br label %16

16:                                               ; preds = %25, %3
  %17 = load i32, ptr %9, align 4, !tbaa !27
  %18 = load i32, ptr %4, align 4, !tbaa !27
  %19 = icmp sle i32 %17, %18
  br i1 %19, label %20, label %28

20:                                               ; preds = %16
  %21 = load ptr, ptr %8, align 8, !tbaa !150
  %22 = load i32, ptr %9, align 4, !tbaa !27
  %23 = sext i32 %22 to i64
  %24 = getelementptr inbounds i32, ptr %21, i64 %23
  store i32 2, ptr %24, align 4, !tbaa !27
  br label %25

25:                                               ; preds = %20
  %26 = load i32, ptr %9, align 4, !tbaa !27
  %27 = add nsw i32 %26, 1
  store i32 %27, ptr %9, align 4, !tbaa !27
  br label %16, !llvm.loop !152

28:                                               ; preds = %16
  %29 = load i32, ptr %4, align 4, !tbaa !27
  %30 = load ptr, ptr %5, align 8, !tbaa !142
  %31 = load ptr, ptr %6, align 8, !tbaa !142
  %32 = call ptr @Abc_NodeConvertSopToMvSop(i32 noundef %29, ptr noundef %30, ptr noundef %31)
  store ptr %32, ptr %7, align 8, !tbaa !58
  %33 = load i32, ptr %4, align 4, !tbaa !27
  %34 = load ptr, ptr %8, align 8, !tbaa !150
  %35 = load ptr, ptr %7, align 8, !tbaa !58
  %36 = call i32 @Abc_NodeEvalMvCostInternal(i32 noundef %33, ptr noundef %34, ptr noundef %35)
  store i32 %36, ptr %10, align 4, !tbaa !27
  %37 = load ptr, ptr %8, align 8, !tbaa !150
  %38 = icmp ne ptr %37, null
  br i1 %38, label %39, label %41

39:                                               ; preds = %28
  %40 = load ptr, ptr %8, align 8, !tbaa !150
  call void @free(ptr noundef %40) #9
  store ptr null, ptr %8, align 8, !tbaa !150
  br label %42

41:                                               ; preds = %28
  br label %42

42:                                               ; preds = %41, %39
  %43 = load ptr, ptr %7, align 8, !tbaa !58
  %44 = icmp ne ptr %43, null
  br i1 %44, label %45, label %47

45:                                               ; preds = %42
  %46 = load ptr, ptr %7, align 8, !tbaa !58
  call void @free(ptr noundef %46) #9
  store ptr null, ptr %7, align 8, !tbaa !58
  br label %48

47:                                               ; preds = %42
  br label %48

48:                                               ; preds = %47, %45
  %49 = load i32, ptr %10, align 4, !tbaa !27
  call void @llvm.lifetime.end.p0(i64 4, ptr %10) #9
  call void @llvm.lifetime.end.p0(i64 4, ptr %9) #9
  call void @llvm.lifetime.end.p0(i64 8, ptr %8) #9
  call void @llvm.lifetime.end.p0(i64 8, ptr %7) #9
  ret i32 %49
}