; Function Attrs: nounwind uwtable
define i32 @Abc_NodeEvalMvCost(i32 noundef %0, ptr noundef readonly captures(none) %1, ptr noundef readonly captures(none) %2) local_unnamed_addr #0 {
  %4 = tail call ptr @Abc_NodeConvertSopToMvSop(i32 noundef %0, ptr noundef %1, ptr noundef %2)
  %5 = load i8, ptr %4, align 1, !tbaa !48
  %.not5.i = icmp eq i8 %5, 0
  br i1 %.not5.i, label %Abc_NodeEvalMvCostInternal.exit, label %.lr.ph.i

.lr.ph.i:                                         ; preds = %3, %.lr.ph.i
  %6 = phi i8 [ %11, %.lr.ph.i ], [ %5, %3 ]
  %.07.i = phi i32 [ %10, %.lr.ph.i ], [ 0, %3 ]
  %.036.i = phi ptr [ %7, %.lr.ph.i ], [ %4, %3 ]
  %7 = getelementptr inbounds nuw i8, ptr %.036.i, i64 1
  %8 = icmp eq i8 %6, 10
  %9 = zext i1 %8 to i32
  %10 = add nuw nsw i32 %.07.i, %9
  %11 = load i8, ptr %7, align 1, !tbaa !48
  %.not.i = icmp eq i8 %11, 0
  br i1 %.not.i, label %Abc_NodeEvalMvCostInternal.exit, label %.lr.ph.i, !llvm.loop !123

Abc_NodeEvalMvCostInternal.exit:                  ; preds = %.lr.ph.i, %3
  %.0.lcssa.i = phi i32 [ 0, %3 ], [ %10, %.lr.ph.i ]
  tail call void @free(ptr noundef %4) #15
  ret i32 %.0.lcssa.i
}